; ModuleID = '27/449.c'
source_filename = "27/449.c"
target datalayout = "e-m:e-p270:32:32-p271:32:32-p272:64:64-i64:64-f80:128-n8:16:32:64-S128"
target triple = "x86_64-pc-linux-gnu"

@.str = private unnamed_addr constant [3 x i8] c"%d\00", align 1
@.str.1 = private unnamed_addr constant [12 x i8] c"%lf %lf %lf\00", align 1
@.str.2 = private unnamed_addr constant [13 x i8] c"x1=x2=%.5lf\0A\00", align 1
@.str.3 = private unnamed_addr constant [33 x i8] c"x1=%.5lf+%.5lfi;x2=%.5lf-%.5lfi\0A\00", align 1
@.str.4 = private unnamed_addr constant [19 x i8] c"x1=%.5lf;x2=%.5lf\0A\00", align 1

; Function Attrs: noinline nounwind uwtable
define dso_local i32 @main() #0 {
  %1 = alloca i32, align 4
  %2 = alloca double, align 8
  %3 = alloca double, align 8
  %4 = alloca double, align 8
  %5 = alloca double, align 8
  %6 = alloca double, align 8
  %7 = alloca double, align 8
  %8 = alloca double, align 8
  %9 = alloca double, align 8
  %10 = alloca double, align 8
  %11 = alloca i32, align 4
  %12 = alloca i32, align 4
  store i32 0, i32* %1, align 4
  %13 = call i32 (i8*, ...) @__isoc99_scanf(i8* getelementptr inbounds ([3 x i8], [3 x i8]* @.str, i64 0, i64 0), i32* %11)
  store i32 1, i32* %12, align 4
  br label %14

14:                                               ; preds = %114, %0
  %15 = load i32, i32* %12, align 4
  %16 = load i32, i32* %11, align 4
  %17 = icmp sle i32 %15, %16
  br i1 %17, label %18, label %117

18:                                               ; preds = %14
  %19 = call i32 (i8*, ...) @__isoc99_scanf(i8* getelementptr inbounds ([12 x i8], [12 x i8]* @.str.1, i64 0, i64 0), double* %2, double* %3, double* %4)
  %20 = load double, double* %3, align 8
  %21 = load double, double* %3, align 8
  %22 = fmul double %20, %21
  %23 = load double, double* %2, align 8
  %24 = fmul double 4.000000e+00, %23
  %25 = load double, double* %4, align 8
  %26 = fmul double %24, %25
  %27 = fsub double %22, %26
  store double %27, double* %5, align 8
  %28 = load double, double* %3, align 8
  %29 = fneg double %28
  %30 = load double, double* %2, align 8
  %31 = fmul double 2.000000e+00, %30
  %32 = fdiv double %29, %31
  store double %32, double* %6, align 8
  %33 = load double, double* %6, align 8
  %34 = fsub double 0.000000e+00, %33
  store double %34, double* %7, align 8
  %35 = load double, double* %2, align 8
  %36 = fmul double 4.000000e+00, %35
  %37 = load double, double* %4, align 8
  %38 = fmul double %36, %37
  %39 = load double, double* %3, align 8
  %40 = load double, double* %3, align 8
  %41 = fmul double %39, %40
  %42 = fsub double %38, %41
  %43 = call double @sqrt(double %42) #3
  %44 = load double, double* %2, align 8
  %45 = fmul double 2.000000e+00, %44
  %46 = fdiv double %43, %45
  store double %46, double* %8, align 8
  %47 = load double, double* %3, align 8
  %48 = fneg double %47
  %49 = load double, double* %3, align 8
  %50 = load double, double* %3, align 8
  %51 = fmul double %49, %50
  %52 = load double, double* %2, align 8
  %53 = fmul double 4.000000e+00, %52
  %54 = load double, double* %4, align 8
  %55 = fmul double %53, %54
  %56 = fsub double %51, %55
  %57 = call double @sqrt(double %56) #3
  %58 = fadd double %48, %57
  %59 = load double, double* %2, align 8
  %60 = fmul double 2.000000e+00, %59
  %61 = fdiv double %58, %60
  store double %61, double* %9, align 8
  %62 = load double, double* %3, align 8
  %63 = fneg double %62
  %64 = load double, double* %3, align 8
  %65 = load double, double* %3, align 8
  %66 = fmul double %64, %65
  %67 = load double, double* %2, align 8
  %68 = fmul double 4.000000e+00, %67
  %69 = load double, double* %4, align 8
  %70 = fmul double %68, %69
  %71 = fsub double %66, %70
  %72 = call double @sqrt(double %71) #3
  %73 = fsub double %63, %72
  %74 = load double, double* %2, align 8
  %75 = fmul double 2.000000e+00, %74
  %76 = fdiv double %73, %75
  store double %76, double* %10, align 8
  %77 = load double, double* %5, align 8
  %78 = fcmp oeq double %77, 0.000000e+00
  br i1 %78, label %79, label %82

79:                                               ; preds = %18
  %80 = load double, double* %6, align 8
  %81 = call i32 (i8*, ...) @printf(i8* getelementptr inbounds ([13 x i8], [13 x i8]* @.str.2, i64 0, i64 0), double %80)
  br label %82

82:                                               ; preds = %79, %18
  %83 = load double, double* %5, align 8
  %84 = fcmp olt double %83, 0.000000e+00
  br i1 %84, label %85, label %94

85:                                               ; preds = %82
  %86 = load double, double* %3, align 8
  %87 = fcmp une double %86, 0.000000e+00
  br i1 %87, label %88, label %94

88:                                               ; preds = %85
  %89 = load double, double* %6, align 8
  %90 = load double, double* %8, align 8
  %91 = load double, double* %6, align 8
  %92 = load double, double* %8, align 8
  %93 = call i32 (i8*, ...) @printf(i8* getelementptr inbounds ([33 x i8], [33 x i8]* @.str.3, i64 0, i64 0), double %89, double %90, double %91, double %92)
  br label %94

94:                                               ; preds = %88, %85, %82
  %95 = load double, double* %5, align 8
  %96 = fcmp olt double %95, 0.000000e+00
  br i1 %96, label %97, label %106

97:                                               ; preds = %94
  %98 = load double, double* %3, align 8
  %99 = fcmp oeq double %98, 0.000000e+00
  br i1 %99, label %100, label %106

100:                                              ; preds = %97
  %101 = load double, double* %7, align 8
  %102 = load double, double* %8, align 8
  %103 = load double, double* %7, align 8
  %104 = load double, double* %8, align 8
  %105 = call i32 (i8*, ...) @printf(i8* getelementptr inbounds ([33 x i8], [33 x i8]* @.str.3, i64 0, i64 0), double %101, double %102, double %103, double %104)
  br label %106

106:                                              ; preds = %100, %97, %94
  %107 = load double, double* %5, align 8
  %108 = fcmp ogt double %107, 0.000000e+00
  br i1 %108, label %109, label %113

109:                                              ; preds = %106
  %110 = load double, double* %9, align 8
  %111 = load double, double* %10, align 8
  %112 = call i32 (i8*, ...) @printf(i8* getelementptr inbounds ([19 x i8], [19 x i8]* @.str.4, i64 0, i64 0), double %110, double %111)
  br label %113

113:                                              ; preds = %109, %106
  br label %114

114:                                              ; preds = %113
  %115 = load i32, i32* %12, align 4
  %116 = add nsw i32 %115, 1
  store i32 %116, i32* %12, align 4
  br label %14

117:                                              ; preds = %14
  ret i32 0
}

declare dso_local i32 @__isoc99_scanf(i8*, ...) #1

; Function Attrs: nounwind
declare dso_local double @sqrt(double) #2

declare dso_local i32 @printf(i8*, ...) #1


!llvm.module.flags = !{!0}
!llvm.ident = !{!1}

!0 = !{i32 1, !"wchar_size", i32 4}
!1 = !{!"clang version 10.0.0-4ubuntu1 "}
